; Function Attrs: nounwind uwtable
define dso_local ptr @ExecFetchSlotHeapTuple(ptr noundef %0, i1 noundef zeroext %1, ptr noundef writeonly captures(address_is_null) %2) local_unnamed_addr #1 {
  br i1 %1, label %4, label %9

4:                                                ; preds = %3
  %5 = getelementptr inbounds nuw i8, ptr %0, i64 8
  %6 = load ptr, ptr %5, align 8
  %7 = getelementptr inbounds nuw i8, ptr %6, i64 56
  %8 = load ptr, ptr %7, align 8
  tail call void %8(ptr noundef %0) #14
  br label %9

9:                                                ; preds = %4, %3
  %10 = getelementptr inbounds nuw i8, ptr %0, i64 8
  %11 = load ptr, ptr %10, align 8
  %12 = getelementptr inbounds nuw i8, ptr %11, i64 72
  %13 = load ptr, ptr %12, align 8
  %14 = icmp eq ptr %13, null
  %.not13 = icmp eq ptr %2, null
  br i1 %14, label %15, label %21

15:                                               ; preds = %9
  br i1 %.not13, label %17, label %16

16:                                               ; preds = %15
  store i8 1, ptr %2, align 1
  %.pre15 = load ptr, ptr %10, align 8
  br label %17

17:                                               ; preds = %16, %15
  %18 = phi ptr [ %.pre15, %16 ], [ %11, %15 ]
  %19 = getelementptr inbounds nuw i8, ptr %18, i64 88
  %20 = load ptr, ptr %19, align 8
  br label %23

21:                                               ; preds = %9
  br i1 %.not13, label %23, label %22

22:                                               ; preds = %21
  store i8 0, ptr %2, align 1
  %.pre = load ptr, ptr %10, align 8
  %.phi.trans.insert = getelementptr inbounds nuw i8, ptr %.pre, i64 72
  %.pre14 = load ptr, ptr %.phi.trans.insert, align 8
  br label %23

23:                                               ; preds = %21, %22, %17
  %.sink = phi ptr [ %20, %17 ], [ %.pre14, %22 ], [ %13, %21 ]
  %24 = tail call ptr %.sink(ptr noundef nonnull %0) #14
  ret ptr %24
}